; ModuleID = '827.c'
source_filename = "827.c"
target datalayout = "e-m:e-p270:32:32-p271:32:32-p272:64:64-i64:64-f80:128-n8:16:32:64-S128"
target triple = "x86_64-pc-linux-gnu"

@.str = private unnamed_addr constant [3 x i8] c"%d\00", align 1
@.str.1 = private unnamed_addr constant [5 x i8] c"%.3d\00", align 1
@.str.2 = private unnamed_addr constant [2 x i8] c"\0A\00", align 1

; Function Attrs: noinline nounwind uwtable
define dso_local i32 @main() #0 {
  %1 = alloca i32, align 4
  %2 = alloca [80 x i32], align 16
  %3 = alloca i32, align 4
  %4 = alloca i32, align 4
  %5 = alloca i32, align 4
  %6 = alloca i32, align 4
  %7 = alloca i32, align 4
  store i32 0, i32* %1, align 4
  %8 = bitcast [80 x i32]* %2 to i8*
  call void @llvm.memset.p0i8.i64(i8* align 16 %8, i8 0, i64 320, i1 false)
  store i32 1, i32* %3, align 4
  %9 = call i32 (i8*, ...) @__isoc99_scanf(i8* getelementptr inbounds ([3 x i8], [3 x i8]* @.str, i64 0, i64 0), i32* %5)
  %10 = load i32, i32* %5, align 4
  %11 = icmp sle i32 %10, 30
  br i1 %11, label %12, label %19

12:                                               ; preds = %0
  %13 = load i32, i32* %5, align 4
  %14 = sitofp i32 %13 to double
  %15 = call double @pow(double 2.000000e+00, double %14) #4
  %16 = fptosi double %15 to i32
  store i32 %16, i32* %4, align 4
  %17 = load i32, i32* %4, align 4
  %18 = call i32 (i8*, ...) @printf(i8* getelementptr inbounds ([3 x i8], [3 x i8]* @.str, i64 0, i64 0), i32 %17)
  store i32 0, i32* %1, align 4
  br label %104

19:                                               ; preds = %0
  %20 = getelementptr inbounds [80 x i32], [80 x i32]* %2, i64 0, i64 0
  store i32 1, i32* %20, align 16
  store i32 0, i32* %6, align 4
  br label %21

21:                                               ; preds = %73, %19
  %22 = load i32, i32* %6, align 4
  %23 = load i32, i32* %5, align 4
  %24 = icmp slt i32 %22, %23
  br i1 %24, label %25, label %76

25:                                               ; preds = %21
  store i32 0, i32* %4, align 4
  store i32 0, i32* %7, align 4
  br label %26

26:                                               ; preds = %69, %25
  %27 = load i32, i32* %7, align 4
  %28 = load i32, i32* %3, align 4
  %29 = icmp slt i32 %27, %28
  br i1 %29, label %30, label %72

30:                                               ; preds = %26
  %31 = load i32, i32* %7, align 4
  %32 = sext i32 %31 to i64
  %33 = getelementptr inbounds [80 x i32], [80 x i32]* %2, i64 0, i64 %32
  %34 = load i32, i32* %33, align 4
  %35 = mul nsw i32 %34, 2
  %36 = load i32, i32* %4, align 4
  %37 = add nsw i32 %35, %36
  %38 = load i32, i32* %7, align 4
  %39 = sext i32 %38 to i64
  %40 = getelementptr inbounds [80 x i32], [80 x i32]* %2, i64 0, i64 %39
  store i32 %37, i32* %40, align 4
  %41 = load i32, i32* %7, align 4
  %42 = sext i32 %41 to i64
  %43 = getelementptr inbounds [80 x i32], [80 x i32]* %2, i64 0, i64 %42
  %44 = load i32, i32* %43, align 4
  %45 = sdiv i32 %44, 1000
  store i32 %45, i32* %4, align 4
  %46 = load i32, i32* %7, align 4
  %47 = sext i32 %46 to i64
  %48 = getelementptr inbounds [80 x i32], [80 x i32]* %2, i64 0, i64 %47
  %49 = load i32, i32* %48, align 4
  %50 = icmp sge i32 %49, 1000
  br i1 %50, label %51, label %68

51:                                               ; preds = %30
  %52 = load i32, i32* %7, align 4
  %53 = sext i32 %52 to i64
  %54 = getelementptr inbounds [80 x i32], [80 x i32]* %2, i64 0, i64 %53
  %55 = load i32, i32* %54, align 4
  %56 = srem i32 %55, 1000
  %57 = load i32, i32* %7, align 4
  %58 = sext i32 %57 to i64
  %59 = getelementptr inbounds [80 x i32], [80 x i32]* %2, i64 0, i64 %58
  store i32 %56, i32* %59, align 4
  %60 = load i32, i32* %7, align 4
  %61 = load i32, i32* %3, align 4
  %62 = sub nsw i32 %61, 1
  %63 = icmp eq i32 %60, %62
  br i1 %63, label %64, label %67

64:                                               ; preds = %51
  %65 = load i32, i32* %3, align 4
  %66 = add nsw i32 %65, 1
  store i32 %66, i32* %3, align 4
  br label %67

67:                                               ; preds = %64, %51
  br label %68

68:                                               ; preds = %67, %30
  br label %69

69:                                               ; preds = %68
  %70 = load i32, i32* %7, align 4
  %71 = add nsw i32 %70, 1
  store i32 %71, i32* %7, align 4
  br label %26

72:                                               ; preds = %26
  br label %73

73:                                               ; preds = %72
  %74 = load i32, i32* %6, align 4
  %75 = add nsw i32 %74, 1
  store i32 %75, i32* %6, align 4
  br label %21

76:                                               ; preds = %21
  %77 = load i32, i32* %3, align 4
  %78 = sub nsw i32 %77, 1
  store i32 %78, i32* %6, align 4
  br label %79

79:                                               ; preds = %99, %76
  %80 = load i32, i32* %6, align 4
  %81 = icmp sge i32 %80, 0
  br i1 %81, label %82, label %102

82:                                               ; preds = %79
  %83 = load i32, i32* %6, align 4
  %84 = load i32, i32* %3, align 4
  %85 = sub nsw i32 %84, 1
  %86 = icmp ne i32 %83, %85
  br i1 %86, label %87, label %93

87:                                               ; preds = %82
  %88 = load i32, i32* %6, align 4
  %89 = sext i32 %88 to i64
  %90 = getelementptr inbounds [80 x i32], [80 x i32]* %2, i64 0, i64 %89
  %91 = load i32, i32* %90, align 4
  %92 = call i32 (i8*, ...) @printf(i8* getelementptr inbounds ([5 x i8], [5 x i8]* @.str.1, i64 0, i64 0), i32 %91)
  br label %99

93:                                               ; preds = %82
  %94 = load i32, i32* %6, align 4
  %95 = sext i32 %94 to i64
  %96 = getelementptr inbounds [80 x i32], [80 x i32]* %2, i64 0, i64 %95
  %97 = load i32, i32* %96, align 4
  %98 = call i32 (i8*, ...) @printf(i8* getelementptr inbounds ([3 x i8], [3 x i8]* @.str, i64 0, i64 0), i32 %97)
  br label %99

99:                                               ; preds = %93, %87
  %100 = load i32, i32* %6, align 4
  %101 = add nsw i32 %100, -1
  store i32 %101, i32* %6, align 4
  br label %79

102:                                              ; preds = %79
  %103 = call i32 (i8*, ...) @printf(i8* getelementptr inbounds ([2 x i8], [2 x i8]* @.str.2, i64 0, i64 0))
  store i32 0, i32* %1, align 4
  br label %104

104:                                              ; preds = %102, %12
  %105 = load i32, i32* %1, align 4
  ret i32 %105
}

; Function Attrs: argmemonly nounwind willreturn
declare void @llvm.memset.p0i8.i64(i8* nocapture writeonly, i8, i64, i1 immarg) #1

declare dso_local i32 @__isoc99_scanf(i8*, ...) #2

; Function Attrs: nounwind
declare dso_local double @pow(double, double) #3

declare dso_local i32 @printf(i8*, ...) #2


!llvm.module.flags = !{!0}
!llvm.ident = !{!1}

!0 = !{i32 1, !"wchar_size", i32 4}
!1 = !{!"clang version 10.0.0-4ubuntu1 "}
